target datalayout = "e-m:e-p270:32:32-p271:32:32-p272:64:64-i64:64-i128:128-f80:128-n8:16:32:64-S128"
target triple = "x86_64-pc-linux-gnu"

%"class.icu_77::UObject" = type { ptr }
%"class.icu_77::StringTrieBuilder::Node" = type { %"class.icu_77::UObject", i32, i32 }
%"class.icu_77::StringTrieBuilder::BranchNode.base" = type <{ %"class.icu_77::StringTrieBuilder::Node", i32 }>
%"class.icu_77::StringTrieBuilder::SplitBranchNode" = type { %"class.icu_77::StringTrieBuilder::BranchNode.base", i16, ptr, ptr }
%"class.icu_77::StringTrieBuilder::BranchNode" = type <{ %"class.icu_77::StringTrieBuilder::Node", i32, [4 x i8] }>

; Function Attrs: inlinehint mustprogress uwtable
define linkonce_odr void @_ZN6icu_7717StringTrieBuilder4Node26writeUnlessInsideRightEdgeEiiRS0_(ptr noundef nonnull align 8 dereferenceable(16) %0, i32 noundef %1, i32 noundef %2, ptr noundef nonnull align 8 dereferenceable(16) %3) #8 comdat align 2 {
  %5 = alloca ptr, align 8
  %6 = alloca i32, align 4
  %7 = alloca i32, align 4
  %8 = alloca ptr, align 8
  store ptr %0, ptr %5, align 8, !tbaa !24
  store i32 %1, ptr %6, align 4, !tbaa !16
  store i32 %2, ptr %7, align 4, !tbaa !16
  store ptr %3, ptr %8, align 8, !tbaa !3
  %9 = load ptr, ptr %5, align 8
  %10 = getelementptr inbounds nuw %"class.icu_77::StringTrieBuilder::Node", ptr %9, i32 0, i32 2
  %11 = load i32, ptr %10, align 4, !tbaa !77
  %12 = icmp slt i32 %11, 0
  br i1 %12, label %13, label %28

13:                                               ; preds = %4
  %14 = getelementptr inbounds nuw %"class.icu_77::StringTrieBuilder::Node", ptr %9, i32 0, i32 2
  %15 = load i32, ptr %14, align 4, !tbaa !77
  %16 = load i32, ptr %7, align 4, !tbaa !16
  %17 = icmp slt i32 %15, %16
  br i1 %17, label %23, label %18

18:                                               ; preds = %13
  %19 = load i32, ptr %6, align 4, !tbaa !16
  %20 = getelementptr inbounds nuw %"class.icu_77::StringTrieBuilder::Node", ptr %9, i32 0, i32 2
  %21 = load i32, ptr %20, align 4, !tbaa !77
  %22 = icmp slt i32 %19, %21
  br i1 %22, label %23, label %28

23:                                               ; preds = %18, %13
  %24 = load ptr, ptr %8, align 8, !tbaa !3
  %25 = load ptr, ptr %9, align 8, !tbaa !8
  %26 = getelementptr inbounds ptr, ptr %25, i64 5
  %27 = load ptr, ptr %26, align 8
  call void %27(ptr noundef nonnull align 8 dereferenceable(16) %9, ptr noundef nonnull align 8 dereferenceable(16) %24)
  br label %28

28:                                               ; preds = %23, %18, %4
  ret void
}

; Function Attrs: inlinehint mustprogress nounwind uwtable
define linkonce_odr noundef i32 @_ZNK6icu_7717StringTrieBuilder4Node9getOffsetEv(ptr noundef nonnull align 8 dereferenceable(16) %0) #1 comdat align 2 {
  %2 = alloca ptr, align 8
  store ptr %0, ptr %2, align 8, !tbaa !24
  %3 = load ptr, ptr %2, align 8
  %4 = getelementptr inbounds nuw %"class.icu_77::StringTrieBuilder::Node", ptr %3, i32 0, i32 2
  %5 = load i32, ptr %4, align 4, !tbaa !77
  ret i32 %5
}

; Function Attrs: mustprogress uwtable
define void @_ZN6icu_7717StringTrieBuilder15SplitBranchNode5writeERS0_(ptr noundef nonnull align 8 dereferenceable(40) %0, ptr noundef nonnull align 8 dereferenceable(16) %1) unnamed_addr #2 align 2 {
  %3 = alloca ptr, align 8
  %4 = alloca ptr, align 8
  store ptr %0, ptr %3, align 8, !tbaa !62
  store ptr %1, ptr %4, align 8, !tbaa !3
  %5 = load ptr, ptr %3, align 8
  %6 = getelementptr inbounds nuw %"class.icu_77::StringTrieBuilder::SplitBranchNode", ptr %5, i32 0, i32 2
  %7 = load ptr, ptr %6, align 8, !tbaa !66
  %8 = getelementptr inbounds nuw %"class.icu_77::StringTrieBuilder::BranchNode", ptr %5, i32 0, i32 1
  %9 = load i32, ptr %8, align 8, !tbaa !84
  %10 = getelementptr inbounds nuw %"class.icu_77::StringTrieBuilder::SplitBranchNode", ptr %5, i32 0, i32 3
  %11 = load ptr, ptr %10, align 8, !tbaa !67
  %12 = call noundef i32 @_ZNK6icu_7717StringTrieBuilder4Node9getOffsetEv(ptr noundef nonnull align 8 dereferenceable(16) %11)
  %13 = load ptr, ptr %4, align 8, !tbaa !3
  call void @_ZN6icu_7717StringTrieBuilder4Node26writeUnlessInsideRightEdgeEiiRS0_(ptr noundef nonnull align 8 dereferenceable(16) %7, i32 noundef %9, i32 noundef %12, ptr noundef nonnull align 8 dereferenceable(16) %13)
  %14 = getelementptr inbounds nuw %"class.icu_77::StringTrieBuilder::SplitBranchNode", ptr %5, i32 0, i32 3
  %15 = load ptr, ptr %14, align 8, !tbaa !67
  %16 = load ptr, ptr %4, align 8, !tbaa !3
  %17 = load ptr, ptr %15, align 8, !tbaa !8
  %18 = getelementptr inbounds ptr, ptr %17, i64 5
  %19 = load ptr, ptr %18, align 8
  call void %19(ptr noundef nonnull align 8 dereferenceable(16) %15, ptr noundef nonnull align 8 dereferenceable(16) %16)
  %20 = load ptr, ptr %4, align 8, !tbaa !3
  %21 = getelementptr inbounds nuw %"class.icu_77::StringTrieBuilder::SplitBranchNode", ptr %5, i32 0, i32 2
  %22 = load ptr, ptr %21, align 8, !tbaa !66
  %23 = call noundef i32 @_ZNK6icu_7717StringTrieBuilder4Node9getOffsetEv(ptr noundef nonnull align 8 dereferenceable(16) %22)
  %24 = load ptr, ptr %20, align 8, !tbaa !8
  %25 = getelementptr inbounds ptr, ptr %24, i64 19
  %26 = load ptr, ptr %25, align 8
  %27 = call noundef i32 %26(ptr noundef nonnull align 8 dereferenceable(16) %20, i32 noundef %23)
  %28 = load ptr, ptr %4, align 8, !tbaa !3
  %29 = getelementptr inbounds nuw %"class.icu_77::StringTrieBuilder::SplitBranchNode", ptr %5, i32 0, i32 1
  %30 = load i16, ptr %29, align 4, !tbaa !64
  %31 = zext i16 %30 to i32
  %32 = load ptr, ptr %28, align 8, !tbaa !8
  %33 = getelementptr inbounds ptr, ptr %32, i64 15
  %34 = load ptr, ptr %33, align 8
  %35 = call noundef i32 %34(ptr noundef nonnull align 8 dereferenceable(16) %28, i32 noundef %31)
  %36 = getelementptr inbounds nuw %"class.icu_77::StringTrieBuilder::Node", ptr %5, i32 0, i32 2
  store i32 %35, ptr %36, align 4, !tbaa !77
  ret void
}