; Function Attrs: mustprogress uwtable
define void @_ZN6icu_7717StringTrieBuilder15SplitBranchNode5writeERS0_(ptr noundef nonnull align 8 captures(none) dereferenceable(40) initializes((12, 16)) %0, ptr noundef nonnull align 8 dereferenceable(16) %1) unnamed_addr #2 align 2 {
  %3 = getelementptr inbounds nuw i8, ptr %0, i64 24
  %4 = load ptr, ptr %3, align 8, !tbaa !49
  %5 = getelementptr inbounds nuw i8, ptr %0, i64 32
  %6 = getelementptr inbounds nuw i8, ptr %4, i64 12
  %7 = load i32, ptr %6, align 4, !tbaa !21
  %8 = icmp slt i32 %7, 0
  %.pre5 = load ptr, ptr %5, align 8, !tbaa !50
  br i1 %8, label %9, label %_ZN6icu_7717StringTrieBuilder4Node26writeUnlessInsideRightEdgeEiiRS0_.exit

9:                                                ; preds = %2
  %10 = getelementptr inbounds nuw i8, ptr %.pre5, i64 12
  %11 = load i32, ptr %10, align 4, !tbaa !21
  %12 = getelementptr inbounds nuw i8, ptr %0, i64 16
  %13 = load i32, ptr %12, align 8, !tbaa !59
  %14 = icmp slt i32 %7, %11
  %15 = icmp slt i32 %13, %7
  %or.cond.i = or i1 %14, %15
  br i1 %or.cond.i, label %16, label %_ZN6icu_7717StringTrieBuilder4Node26writeUnlessInsideRightEdgeEiiRS0_.exit

16:                                               ; preds = %9
  %17 = load ptr, ptr %4, align 8, !tbaa !3
  %18 = getelementptr inbounds nuw i8, ptr %17, i64 40
  %19 = load ptr, ptr %18, align 8
  tail call void %19(ptr noundef nonnull align 8 dereferenceable(16) %4, ptr noundef nonnull align 8 dereferenceable(16) %1)
  %.pre = load ptr, ptr %5, align 8, !tbaa !50
  br label %_ZN6icu_7717StringTrieBuilder4Node26writeUnlessInsideRightEdgeEiiRS0_.exit

_ZN6icu_7717StringTrieBuilder4Node26writeUnlessInsideRightEdgeEiiRS0_.exit: ; preds = %2, %9, %16
  %20 = phi ptr [ %.pre5, %2 ], [ %.pre5, %9 ], [ %.pre, %16 ]
  %21 = load ptr, ptr %20, align 8, !tbaa !3
  %22 = getelementptr inbounds nuw i8, ptr %21, i64 40
  %23 = load ptr, ptr %22, align 8
  tail call void %23(ptr noundef nonnull align 8 dereferenceable(16) %20, ptr noundef nonnull align 8 dereferenceable(16) %1)
  %24 = load ptr, ptr %3, align 8, !tbaa !49
  %25 = getelementptr inbounds nuw i8, ptr %24, i64 12
  %26 = load i32, ptr %25, align 4, !tbaa !21
  %27 = load ptr, ptr %1, align 8, !tbaa !3
  %28 = getelementptr inbounds nuw i8, ptr %27, i64 152
  %29 = load ptr, ptr %28, align 8
  %30 = tail call noundef i32 %29(ptr noundef nonnull align 8 dereferenceable(16) %1, i32 noundef %26)
  %31 = getelementptr inbounds nuw i8, ptr %0, i64 20
  %32 = load i16, ptr %31, align 4, !tbaa !47
  %33 = zext i16 %32 to i32
  %34 = load ptr, ptr %1, align 8, !tbaa !3
  %35 = getelementptr inbounds nuw i8, ptr %34, i64 120
  %36 = load ptr, ptr %35, align 8
  %37 = tail call noundef i32 %36(ptr noundef nonnull align 8 dereferenceable(16) %1, i32 noundef %33)
  %38 = getelementptr inbounds nuw i8, ptr %0, i64 12
  store i32 %37, ptr %38, align 4, !tbaa !21
  ret void
}